target datalayout = "e-m:e-p270:32:32-p271:32:32-p272:64:64-i64:64-i128:128-f80:128-n8:16:32:64-S128"
target triple = "x86_64-pc-linux-gnu"

%union.UElement = type { ptr }
%"class.std::basic_string_view" = type { i64, ptr }

; Function Attrs: mustprogress nounwind uwtable
define linkonce_odr noundef nonnull align 1 dereferenceable(1) ptr @_ZNKSt17basic_string_viewIcSt11char_traitsIcEEixEm(ptr noundef nonnull align 8 dereferenceable(16) %0, i64 noundef %1) #2 comdat align 2 {
  %3 = alloca ptr, align 8
  %4 = alloca i64, align 8
  store ptr %0, ptr %3, align 8, !tbaa !52
  store i64 %1, ptr %4, align 8, !tbaa !64
  %5 = load ptr, ptr %3, align 8
  br label %6

6:                                                ; preds = %2
  br label %7

7:                                                ; preds = %6
  br label %8

8:                                                ; preds = %7
  %9 = getelementptr inbounds nuw %"class.std::basic_string_view", ptr %5, i32 0, i32 1
  %10 = load ptr, ptr %9, align 8, !tbaa !54
  %11 = load i64, ptr %4, align 8, !tbaa !64
  %12 = getelementptr inbounds nuw i8, ptr %10, i64 %11
  ret ptr %12
}

; Function Attrs: mustprogress nounwind uwtable
define linkonce_odr noundef i64 @_ZNKSt17basic_string_viewIcSt11char_traitsIcEE4sizeEv(ptr noundef nonnull align 8 dereferenceable(16) %0) #2 comdat align 2 {
  %2 = alloca ptr, align 8
  store ptr %0, ptr %2, align 8, !tbaa !52
  %3 = load ptr, ptr %2, align 8
  %4 = getelementptr inbounds nuw %"class.std::basic_string_view", ptr %3, i32 0, i32 0
  %5 = load i64, ptr %4, align 8, !tbaa !57
  ret i64 %5
}

; Function Attrs: mustprogress uwtable
define signext i8 @uhash_compareIStringView_77(ptr %0, ptr %1) #0 {
  %3 = alloca i8, align 1
  %4 = alloca %union.UElement, align 8
  %5 = alloca %union.UElement, align 8
  %6 = alloca ptr, align 8
  %7 = alloca ptr, align 8
  %8 = alloca i32, align 4
  %9 = alloca ptr, align 8
  %10 = alloca ptr, align 8
  %11 = alloca i64, align 8
  %12 = getelementptr inbounds nuw %union.UElement, ptr %4, i32 0, i32 0
  store ptr %0, ptr %12, align 8
  %13 = getelementptr inbounds nuw %union.UElement, ptr %5, i32 0, i32 0
  store ptr %1, ptr %13, align 8
  call void @llvm.lifetime.start.p0(i64 8, ptr %6) #9
  %14 = load ptr, ptr %4, align 8, !tbaa !27
  store ptr %14, ptr %6, align 8, !tbaa !52
  call void @llvm.lifetime.start.p0(i64 8, ptr %7) #9
  %15 = load ptr, ptr %5, align 8, !tbaa !27
  store ptr %15, ptr %7, align 8, !tbaa !52
  %16 = load ptr, ptr %6, align 8, !tbaa !52
  %17 = load ptr, ptr %7, align 8, !tbaa !52
  %18 = icmp eq ptr %16, %17
  br i1 %18, label %19, label %20

19:                                               ; preds = %2
  store i8 1, ptr %3, align 1
  store i32 1, ptr %8, align 4
  br label %66

20:                                               ; preds = %2
  %21 = load ptr, ptr %6, align 8, !tbaa !52
  %22 = icmp eq ptr %21, null
  br i1 %22, label %26, label %23

23:                                               ; preds = %20
  %24 = load ptr, ptr %7, align 8, !tbaa !52
  %25 = icmp eq ptr %24, null
  br i1 %25, label %26, label %27

26:                                               ; preds = %23, %20
  store i8 0, ptr %3, align 1
  store i32 1, ptr %8, align 4
  br label %66

27:                                               ; preds = %23
  call void @llvm.lifetime.start.p0(i64 8, ptr %9) #9
  %28 = load ptr, ptr %6, align 8, !tbaa !52
  store ptr %28, ptr %9, align 8, !tbaa !52
  call void @llvm.lifetime.start.p0(i64 8, ptr %10) #9
  %29 = load ptr, ptr %7, align 8, !tbaa !52
  store ptr %29, ptr %10, align 8, !tbaa !52
  %30 = load ptr, ptr %9, align 8, !tbaa !52
  %31 = call noundef i64 @_ZNKSt17basic_string_viewIcSt11char_traitsIcEE4sizeEv(ptr noundef nonnull align 8 dereferenceable(16) %30) #9
  %32 = load ptr, ptr %10, align 8, !tbaa !52
  %33 = call noundef i64 @_ZNKSt17basic_string_viewIcSt11char_traitsIcEE4sizeEv(ptr noundef nonnull align 8 dereferenceable(16) %32) #9
  %34 = icmp ne i64 %31, %33
  br i1 %34, label %35, label %36

35:                                               ; preds = %27
  store i8 0, ptr %3, align 1
  store i32 1, ptr %8, align 4
  br label %65

36:                                               ; preds = %27
  call void @llvm.lifetime.start.p0(i64 8, ptr %11) #9
  store i64 0, ptr %11, align 8, !tbaa !64
  br label %37

37:                                               ; preds = %59, %36
  %38 = load i64, ptr %11, align 8, !tbaa !64
  %39 = load ptr, ptr %9, align 8, !tbaa !52
  %40 = call noundef i64 @_ZNKSt17basic_string_viewIcSt11char_traitsIcEE4sizeEv(ptr noundef nonnull align 8 dereferenceable(16) %39) #9
  %41 = icmp ult i64 %38, %40
  br i1 %41, label %43, label %42

42:                                               ; preds = %37
  store i32 2, ptr %8, align 4
  br label %62

43:                                               ; preds = %37
  %44 = load ptr, ptr %9, align 8, !tbaa !52
  %45 = load i64, ptr %11, align 8, !tbaa !64
  %46 = call noundef nonnull align 1 dereferenceable(1) ptr @_ZNKSt17basic_string_viewIcSt11char_traitsIcEEixEm(ptr noundef nonnull align 8 dereferenceable(16) %44, i64 noundef %45) #9
  %47 = load i8, ptr %46, align 1, !tbaa !27
  %48 = call signext i8 @uprv_asciitolower_77(i8 noundef signext %47)
  %49 = sext i8 %48 to i32
  %50 = load ptr, ptr %10, align 8, !tbaa !52
  %51 = load i64, ptr %11, align 8, !tbaa !64
  %52 = call noundef nonnull align 1 dereferenceable(1) ptr @_ZNKSt17basic_string_viewIcSt11char_traitsIcEEixEm(ptr noundef nonnull align 8 dereferenceable(16) %50, i64 noundef %51) #9
  %53 = load i8, ptr %52, align 1, !tbaa !27
  %54 = call signext i8 @uprv_asciitolower_77(i8 noundef signext %53)
  %55 = sext i8 %54 to i32
  %56 = icmp ne i32 %49, %55
  br i1 %56, label %57, label %58

57:                                               ; preds = %43
  store i8 0, ptr %3, align 1
  store i32 1, ptr %8, align 4
  br label %62

58:                                               ; preds = %43
  br label %59

59:                                               ; preds = %58
  %60 = load i64, ptr %11, align 8, !tbaa !64
  %61 = add i64 %60, 1
  store i64 %61, ptr %11, align 8, !tbaa !64
  br label %37, !llvm.loop !65

62:                                               ; preds = %57, %42
  call void @llvm.lifetime.end.p0(i64 8, ptr %11) #9
  %63 = load i32, ptr %8, align 4
  switch i32 %63, label %65 [
    i32 2, label %64
  ]

64:                                               ; preds = %62
  store i8 1, ptr %3, align 1
  store i32 1, ptr %8, align 4
  br label %65

65:                                               ; preds = %64, %62, %35
  call void @llvm.lifetime.end.p0(i64 8, ptr %10) #9
  call void @llvm.lifetime.end.p0(i64 8, ptr %9) #9
  br label %66

66:                                               ; preds = %65, %26, %19
  call void @llvm.lifetime.end.p0(i64 8, ptr %7) #9
  call void @llvm.lifetime.end.p0(i64 8, ptr %6) #9
  %67 = load i8, ptr %3, align 1
  ret i8 %67
}