; Function Attrs: mustprogress uwtable
define signext range(i8 0, 2) i8 @uhash_compareIStringView_77(ptr readonly %0, ptr readonly %1) local_unnamed_addr #0 {
  %3 = icmp eq ptr %0, %1
  br i1 %3, label %._crit_edge, label %4

4:                                                ; preds = %2
  %5 = icmp eq ptr %0, null
  %6 = icmp eq ptr %1, null
  %or.cond = or i1 %5, %6
  br i1 %or.cond, label %._crit_edge, label %7

7:                                                ; preds = %4
  %8 = load i64, ptr %0, align 8, !tbaa !44
  %9 = load i64, ptr %1, align 8, !tbaa !44
  %.not = icmp eq i64 %8, %9
  br i1 %.not, label %.preheader, label %._crit_edge

.preheader:                                       ; preds = %7
  %10 = getelementptr inbounds nuw i8, ptr %0, i64 8
  %.not2324 = icmp eq i64 %8, 0
  br i1 %.not2324, label %._crit_edge, label %.lr.ph

.lr.ph:                                           ; preds = %.preheader
  %11 = getelementptr inbounds nuw i8, ptr %1, i64 8
  br label %15

12:                                               ; preds = %15
  %13 = add nuw i64 %.025, 1
  %14 = load i64, ptr %0, align 8, !tbaa !44
  %.not23.not = icmp ult i64 %13, %14
  br i1 %.not23.not, label %15, label %._crit_edge, !llvm.loop !51

15:                                               ; preds = %.lr.ph, %12
  %.025 = phi i64 [ 0, %.lr.ph ], [ %13, %12 ]
  %16 = load ptr, ptr %10, align 8, !tbaa !40
  %17 = getelementptr inbounds nuw i8, ptr %16, i64 %.025
  %18 = load i8, ptr %17, align 1, !tbaa !34
  %19 = tail call signext i8 @uprv_asciitolower_77(i8 noundef signext %18)
  %20 = load ptr, ptr %11, align 8, !tbaa !40
  %21 = getelementptr inbounds nuw i8, ptr %20, i64 %.025
  %22 = load i8, ptr %21, align 1, !tbaa !34
  %23 = tail call signext i8 @uprv_asciitolower_77(i8 noundef signext %22)
  %.not22 = icmp eq i8 %19, %23
  br i1 %.not22, label %12, label %._crit_edge

._crit_edge:                                      ; preds = %15, %12, %.preheader, %7, %4, %2
  %.018 = phi i8 [ 1, %2 ], [ 0, %4 ], [ 0, %7 ], [ 1, %.preheader ], [ 0, %15 ], [ 1, %12 ]
  ret i8 %.018
}